target datalayout = "e-m:e-p270:32:32-p271:32:32-p272:64:64-i64:64-i128:128-f80:128-n8:16:32:64-S128"
target triple = "x86_64-pc-linux-gnu"

%struct.gz_state = type { %struct.gzFile_s, i32, i32, ptr, i32, i32, ptr, ptr, i32, i32, i64, i32, i32, i32, i32, i64, i32, i32, ptr, %struct.z_stream_s }
%struct.gzFile_s = type { i32, ptr, i64 }
%struct.z_stream_s = type { ptr, i32, i64, ptr, i32, i64, ptr, ptr, ptr, ptr, ptr, i32, i64, i64, i32 }

; Function Attrs: nounwind uwtable
define i32 @MOZ_Z_gzclose_r(ptr noundef %0) #0 {
  %2 = alloca i32, align 4
  %3 = alloca ptr, align 8
  %4 = alloca i32, align 4
  %5 = alloca i32, align 4
  %6 = alloca ptr, align 8
  %7 = alloca i32, align 4
  store ptr %0, ptr %3, align 8, !tbaa !3
  call void @llvm.lifetime.start.p0(i64 4, ptr %4) #8
  call void @llvm.lifetime.start.p0(i64 4, ptr %5) #8
  call void @llvm.lifetime.start.p0(i64 8, ptr %6) #8
  %8 = load ptr, ptr %3, align 8, !tbaa !3
  %9 = icmp eq ptr %8, null
  br i1 %9, label %10, label %11

10:                                               ; preds = %1
  store i32 -2, ptr %2, align 4
  store i32 1, ptr %7, align 4
  br label %55

11:                                               ; preds = %1
  %12 = load ptr, ptr %3, align 8, !tbaa !3
  store ptr %12, ptr %6, align 8, !tbaa !8
  %13 = load ptr, ptr %6, align 8, !tbaa !8
  %14 = getelementptr inbounds nuw %struct.gz_state, ptr %13, i32 0, i32 1
  %15 = load i32, ptr %14, align 8, !tbaa !13
  %16 = icmp ne i32 %15, 7247
  br i1 %16, label %17, label %18

17:                                               ; preds = %11
  store i32 -2, ptr %2, align 4
  store i32 1, ptr %7, align 4
  br label %55

18:                                               ; preds = %11
  %19 = load ptr, ptr %6, align 8, !tbaa !8
  %20 = getelementptr inbounds nuw %struct.gz_state, ptr %19, i32 0, i32 4
  %21 = load i32, ptr %20, align 8, !tbaa !29
  %22 = icmp ne i32 %21, 0
  br i1 %22, label %23, label %33

23:                                               ; preds = %18
  %24 = load ptr, ptr %6, align 8, !tbaa !8
  %25 = getelementptr inbounds nuw %struct.gz_state, ptr %24, i32 0, i32 19
  %26 = call i32 @MOZ_Z_inflateEnd(ptr noundef %25)
  %27 = load ptr, ptr %6, align 8, !tbaa !8
  %28 = getelementptr inbounds nuw %struct.gz_state, ptr %27, i32 0, i32 7
  %29 = load ptr, ptr %28, align 8, !tbaa !38
  call void @free(ptr noundef %29) #8
  %30 = load ptr, ptr %6, align 8, !tbaa !8
  %31 = getelementptr inbounds nuw %struct.gz_state, ptr %30, i32 0, i32 6
  %32 = load ptr, ptr %31, align 8, !tbaa !52
  call void @free(ptr noundef %32) #8
  br label %33

33:                                               ; preds = %23, %18
  %34 = load ptr, ptr %6, align 8, !tbaa !8
  %35 = getelementptr inbounds nuw %struct.gz_state, ptr %34, i32 0, i32 17
  %36 = load i32, ptr %35, align 4, !tbaa !20
  %37 = icmp eq i32 %36, -5
  %38 = select i1 %37, i32 -5, i32 0
  store i32 %38, ptr %5, align 4, !tbaa !9
  %39 = load ptr, ptr %6, align 8, !tbaa !8
  call void @MOZ_Z_gz_error(ptr noundef %39, i32 noundef 0, ptr noundef null)
  %40 = load ptr, ptr %6, align 8, !tbaa !8
  %41 = getelementptr inbounds nuw %struct.gz_state, ptr %40, i32 0, i32 3
  %42 = load ptr, ptr %41, align 8, !tbaa !58
  call void @free(ptr noundef %42) #8
  %43 = load ptr, ptr %6, align 8, !tbaa !8
  %44 = getelementptr inbounds nuw %struct.gz_state, ptr %43, i32 0, i32 2
  %45 = load i32, ptr %44, align 4, !tbaa !43
  %46 = call i32 @close(i32 noundef %45)
  store i32 %46, ptr %4, align 4, !tbaa !9
  %47 = load ptr, ptr %6, align 8, !tbaa !8
  call void @free(ptr noundef %47) #8
  %48 = load i32, ptr %4, align 4, !tbaa !9
  %49 = icmp ne i32 %48, 0
  br i1 %49, label %50, label %51

50:                                               ; preds = %33
  br label %53

51:                                               ; preds = %33
  %52 = load i32, ptr %5, align 4, !tbaa !9
  br label %53

53:                                               ; preds = %51, %50
  %54 = phi i32 [ -1, %50 ], [ %52, %51 ]
  store i32 %54, ptr %2, align 4
  store i32 1, ptr %7, align 4
  br label %55

55:                                               ; preds = %53, %17, %10
  call void @llvm.lifetime.end.p0(i64 8, ptr %6) #8
  call void @llvm.lifetime.end.p0(i64 4, ptr %5) #8
  call void @llvm.lifetime.end.p0(i64 4, ptr %4) #8
  %56 = load i32, ptr %2, align 4
  ret i32 %56
}