; Function Attrs: nounwind uwtable
define range(i32 -5, 1) i32 @MOZ_Z_gzclose_r(ptr noundef %0) local_unnamed_addr #0 {
  %2 = icmp eq ptr %0, null
  br i1 %2, label %27, label %3

3:                                                ; preds = %1
  %4 = getelementptr inbounds nuw i8, ptr %0, i64 24
  %5 = load i32, ptr %4, align 8, !tbaa !3
  %.not = icmp eq i32 %5, 7247
  br i1 %.not, label %6, label %27

6:                                                ; preds = %3
  %7 = getelementptr inbounds nuw i8, ptr %0, i64 40
  %8 = load i32, ptr %7, align 8, !tbaa !27
  %.not15 = icmp eq i32 %8, 0
  br i1 %.not15, label %16, label %9

9:                                                ; preds = %6
  %10 = getelementptr inbounds nuw i8, ptr %0, i64 120
  %11 = tail call i32 @MOZ_Z_inflateEnd(ptr noundef nonnull %10) #12
  %12 = getelementptr inbounds nuw i8, ptr %0, i64 56
  %13 = load ptr, ptr %12, align 8, !tbaa !34
  tail call void @free(ptr noundef %13) #12
  %14 = getelementptr inbounds nuw i8, ptr %0, i64 48
  %15 = load ptr, ptr %14, align 8, !tbaa !43
  tail call void @free(ptr noundef %15) #12
  br label %16

16:                                               ; preds = %9, %6
  %17 = getelementptr inbounds nuw i8, ptr %0, i64 108
  %18 = load i32, ptr %17, align 4, !tbaa !14
  %19 = icmp eq i32 %18, -5
  %20 = select i1 %19, i32 -5, i32 0
  tail call void @MOZ_Z_gz_error(ptr noundef nonnull %0, i32 noundef 0, ptr noundef null) #12
  %21 = getelementptr inbounds nuw i8, ptr %0, i64 32
  %22 = load ptr, ptr %21, align 8, !tbaa !46
  tail call void @free(ptr noundef %22) #12
  %23 = getelementptr inbounds nuw i8, ptr %0, i64 28
  %24 = load i32, ptr %23, align 4, !tbaa !28
  %25 = tail call i32 @close(i32 noundef %24) #12
  tail call void @free(ptr noundef nonnull %0) #12
  %.not16 = icmp eq i32 %25, 0
  %26 = select i1 %.not16, i32 %20, i32 -1
  br label %27

27:                                               ; preds = %3, %1, %16
  %.0 = phi i32 [ %26, %16 ], [ -2, %1 ], [ -2, %3 ]
  ret i32 %.0
}